target datalayout = "e-m:e-p270:32:32-p271:32:32-p272:64:64-i64:64-i128:128-f80:128-n8:16:32:64-S128"
target triple = "x86_64-pc-linux-gnu"

%struct.anon = type { i64, double, double, double, double, double, double, double, double, double, double, double }
%struct._generic_SUNMatrix = type { ptr, ptr, ptr }
%struct._SUNMatrixContent_Band = type { i64, i64, i64, i64, i64, i64, ptr, i64, ptr }

; Function Attrs: nounwind uwtable
define internal i32 @LaplaceMatrix(double noundef %0, ptr noundef %1, ptr noundef %2) #0 {
  %4 = alloca double, align 8
  %5 = alloca ptr, align 8
  %6 = alloca ptr, align 8
  %7 = alloca i64, align 8
  %8 = alloca double, align 8
  %9 = alloca i64, align 8
  store double %0, ptr %4, align 8, !tbaa !11
  store ptr %1, ptr %5, align 8, !tbaa !24
  store ptr %2, ptr %6, align 8, !tbaa !17
  call void @llvm.lifetime.start.p0(i64 8, ptr %7) #8
  %10 = load ptr, ptr %6, align 8, !tbaa !17
  %11 = getelementptr inbounds nuw %struct.anon, ptr %10, i32 0, i32 0
  %12 = load i64, ptr %11, align 8, !tbaa !34
  store i64 %12, ptr %7, align 8, !tbaa !13
  call void @llvm.lifetime.start.p0(i64 8, ptr %8) #8
  %13 = load ptr, ptr %6, align 8, !tbaa !17
  %14 = getelementptr inbounds nuw %struct.anon, ptr %13, i32 0, i32 1
  %15 = load double, ptr %14, align 8, !tbaa !46
  store double %15, ptr %8, align 8, !tbaa !11
  call void @llvm.lifetime.start.p0(i64 8, ptr %9) #8
  store i64 1, ptr %9, align 8, !tbaa !13
  br label %16

16:                                               ; preds = %355, %3
  %17 = load i64, ptr %9, align 8, !tbaa !13
  %18 = load i64, ptr %7, align 8, !tbaa !13
  %19 = sub nsw i64 %18, 1
  %20 = icmp slt i64 %17, %19
  br i1 %20, label %21, label %358

21:                                               ; preds = %16
  %22 = load double, ptr %4, align 8, !tbaa !11
  %23 = load ptr, ptr %6, align 8, !tbaa !17
  %24 = getelementptr inbounds nuw %struct.anon, ptr %23, i32 0, i32 5
  %25 = load double, ptr %24, align 8, !tbaa !38
  %26 = fmul double %22, %25
  %27 = load double, ptr %8, align 8, !tbaa !11
  %28 = fdiv double %26, %27
  %29 = load double, ptr %8, align 8, !tbaa !11
  %30 = fdiv double %28, %29
  %31 = load ptr, ptr %5, align 8, !tbaa !24
  %32 = getelementptr inbounds nuw %struct._generic_SUNMatrix, ptr %31, i32 0, i32 0
  %33 = load ptr, ptr %32, align 8, !tbaa !59
  %34 = getelementptr inbounds nuw %struct._SUNMatrixContent_Band, ptr %33, i32 0, i32 8
  %35 = load ptr, ptr %34, align 8, !tbaa !62
  %36 = load i64, ptr %9, align 8, !tbaa !13
  %37 = sub nsw i64 %36, 1
  %38 = mul nsw i64 3, %37
  %39 = add nsw i64 %38, 0
  %40 = getelementptr inbounds ptr, ptr %35, i64 %39
  %41 = load ptr, ptr %40, align 8, !tbaa !28
  %42 = load i64, ptr %9, align 8, !tbaa !13
  %43 = mul nsw i64 3, %42
  %44 = add nsw i64 %43, 0
  %45 = load i64, ptr %9, align 8, !tbaa !13
  %46 = sub nsw i64 %45, 1
  %47 = mul nsw i64 3, %46
  %48 = add nsw i64 %47, 0
  %49 = sub nsw i64 %44, %48
  %50 = load ptr, ptr %5, align 8, !tbaa !24
  %51 = getelementptr inbounds nuw %struct._generic_SUNMatrix, ptr %50, i32 0, i32 0
  %52 = load ptr, ptr %51, align 8, !tbaa !59
  %53 = getelementptr inbounds nuw %struct._SUNMatrixContent_Band, ptr %52, i32 0, i32 5
  %54 = load i64, ptr %53, align 8, !tbaa !64
  %55 = add nsw i64 %49, %54
  %56 = getelementptr inbounds double, ptr %41, i64 %55
  %57 = load double, ptr %56, align 8, !tbaa !11
  %58 = fadd double %57, %30
  store double %58, ptr %56, align 8, !tbaa !11
  %59 = load double, ptr %4, align 8, !tbaa !11
  %60 = load ptr, ptr %6, align 8, !tbaa !17
  %61 = getelementptr inbounds nuw %struct.anon, ptr %60, i32 0, i32 6
  %62 = load double, ptr %61, align 8, !tbaa !39
  %63 = fmul double %59, %62
  %64 = load double, ptr %8, align 8, !tbaa !11
  %65 = fdiv double %63, %64
  %66 = load double, ptr %8, align 8, !tbaa !11
  %67 = fdiv double %65, %66
  %68 = load ptr, ptr %5, align 8, !tbaa !24
  %69 = getelementptr inbounds nuw %struct._generic_SUNMatrix, ptr %68, i32 0, i32 0
  %70 = load ptr, ptr %69, align 8, !tbaa !59
  %71 = getelementptr inbounds nuw %struct._SUNMatrixContent_Band, ptr %70, i32 0, i32 8
  %72 = load ptr, ptr %71, align 8, !tbaa !62
  %73 = load i64, ptr %9, align 8, !tbaa !13
  %74 = sub nsw i64 %73, 1
  %75 = mul nsw i64 3, %74
  %76 = add nsw i64 %75, 1
  %77 = getelementptr inbounds ptr, ptr %72, i64 %76
  %78 = load ptr, ptr %77, align 8, !tbaa !28
  %79 = load i64, ptr %9, align 8, !tbaa !13
  %80 = mul nsw i64 3, %79
  %81 = add nsw i64 %80, 1
  %82 = load i64, ptr %9, align 8, !tbaa !13
  %83 = sub nsw i64 %82, 1
  %84 = mul nsw i64 3, %83
  %85 = add nsw i64 %84, 1
  %86 = sub nsw i64 %81, %85
  %87 = load ptr, ptr %5, align 8, !tbaa !24
  %88 = getelementptr inbounds nuw %struct._generic_SUNMatrix, ptr %87, i32 0, i32 0
  %89 = load ptr, ptr %88, align 8, !tbaa !59
  %90 = getelementptr inbounds nuw %struct._SUNMatrixContent_Band, ptr %89, i32 0, i32 5
  %91 = load i64, ptr %90, align 8, !tbaa !64
  %92 = add nsw i64 %86, %91
  %93 = getelementptr inbounds double, ptr %78, i64 %92
  %94 = load double, ptr %93, align 8, !tbaa !11
  %95 = fadd double %94, %67
  store double %95, ptr %93, align 8, !tbaa !11
  %96 = load double, ptr %4, align 8, !tbaa !11
  %97 = load ptr, ptr %6, align 8, !tbaa !17
  %98 = getelementptr inbounds nuw %struct.anon, ptr %97, i32 0, i32 7
  %99 = load double, ptr %98, align 8, !tbaa !40
  %100 = fmul double %96, %99
  %101 = load double, ptr %8, align 8, !tbaa !11
  %102 = fdiv double %100, %101
  %103 = load double, ptr %8, align 8, !tbaa !11
  %104 = fdiv double %102, %103
  %105 = load ptr, ptr %5, align 8, !tbaa !24
  %106 = getelementptr inbounds nuw %struct._generic_SUNMatrix, ptr %105, i32 0, i32 0
  %107 = load ptr, ptr %106, align 8, !tbaa !59
  %108 = getelementptr inbounds nuw %struct._SUNMatrixContent_Band, ptr %107, i32 0, i32 8
  %109 = load ptr, ptr %108, align 8, !tbaa !62
  %110 = load i64, ptr %9, align 8, !tbaa !13
  %111 = sub nsw i64 %110, 1
  %112 = mul nsw i64 3, %111
  %113 = add nsw i64 %112, 2
  %114 = getelementptr inbounds ptr, ptr %109, i64 %113
  %115 = load ptr, ptr %114, align 8, !tbaa !28
  %116 = load i64, ptr %9, align 8, !tbaa !13
  %117 = mul nsw i64 3, %116
  %118 = add nsw i64 %117, 2
  %119 = load i64, ptr %9, align 8, !tbaa !13
  %120 = sub nsw i64 %119, 1
  %121 = mul nsw i64 3, %120
  %122 = add nsw i64 %121, 2
  %123 = sub nsw i64 %118, %122
  %124 = load ptr, ptr %5, align 8, !tbaa !24
  %125 = getelementptr inbounds nuw %struct._generic_SUNMatrix, ptr %124, i32 0, i32 0
  %126 = load ptr, ptr %125, align 8, !tbaa !59
  %127 = getelementptr inbounds nuw %struct._SUNMatrixContent_Band, ptr %126, i32 0, i32 5
  %128 = load i64, ptr %127, align 8, !tbaa !64
  %129 = add nsw i64 %123, %128
  %130 = getelementptr inbounds double, ptr %115, i64 %129
  %131 = load double, ptr %130, align 8, !tbaa !11
  %132 = fadd double %131, %104
  store double %132, ptr %130, align 8, !tbaa !11
  %133 = load double, ptr %4, align 8, !tbaa !11
  %134 = fneg double %133
  %135 = fmul double %134, 2.000000e+00
  %136 = load ptr, ptr %6, align 8, !tbaa !17
  %137 = getelementptr inbounds nuw %struct.anon, ptr %136, i32 0, i32 5
  %138 = load double, ptr %137, align 8, !tbaa !38
  %139 = fmul double %135, %138
  %140 = load double, ptr %8, align 8, !tbaa !11
  %141 = fdiv double %139, %140
  %142 = load double, ptr %8, align 8, !tbaa !11
  %143 = fdiv double %141, %142
  %144 = load ptr, ptr %5, align 8, !tbaa !24
  %145 = getelementptr inbounds nuw %struct._generic_SUNMatrix, ptr %144, i32 0, i32 0
  %146 = load ptr, ptr %145, align 8, !tbaa !59
  %147 = getelementptr inbounds nuw %struct._SUNMatrixContent_Band, ptr %146, i32 0, i32 8
  %148 = load ptr, ptr %147, align 8, !tbaa !62
  %149 = load i64, ptr %9, align 8, !tbaa !13
  %150 = mul nsw i64 3, %149
  %151 = add nsw i64 %150, 0
  %152 = getelementptr inbounds ptr, ptr %148, i64 %151
  %153 = load ptr, ptr %152, align 8, !tbaa !28
  %154 = load i64, ptr %9, align 8, !tbaa !13
  %155 = mul nsw i64 3, %154
  %156 = add nsw i64 %155, 0
  %157 = load i64, ptr %9, align 8, !tbaa !13
  %158 = mul nsw i64 3, %157
  %159 = add nsw i64 %158, 0
  %160 = sub nsw i64 %156, %159
  %161 = load ptr, ptr %5, align 8, !tbaa !24
  %162 = getelementptr inbounds nuw %struct._generic_SUNMatrix, ptr %161, i32 0, i32 0
  %163 = load ptr, ptr %162, align 8, !tbaa !59
  %164 = getelementptr inbounds nuw %struct._SUNMatrixContent_Band, ptr %163, i32 0, i32 5
  %165 = load i64, ptr %164, align 8, !tbaa !64
  %166 = add nsw i64 %160, %165
  %167 = getelementptr inbounds double, ptr %153, i64 %166
  %168 = load double, ptr %167, align 8, !tbaa !11
  %169 = fadd double %168, %143
  store double %169, ptr %167, align 8, !tbaa !11
  %170 = load double, ptr %4, align 8, !tbaa !11
  %171 = fneg double %170
  %172 = fmul double %171, 2.000000e+00
  %173 = load ptr, ptr %6, align 8, !tbaa !17
  %174 = getelementptr inbounds nuw %struct.anon, ptr %173, i32 0, i32 6
  %175 = load double, ptr %174, align 8, !tbaa !39
  %176 = fmul double %172, %175
  %177 = load double, ptr %8, align 8, !tbaa !11
  %178 = fdiv double %176, %177
  %179 = load double, ptr %8, align 8, !tbaa !11
  %180 = fdiv double %178, %179
  %181 = load ptr, ptr %5, align 8, !tbaa !24
  %182 = getelementptr inbounds nuw %struct._generic_SUNMatrix, ptr %181, i32 0, i32 0
  %183 = load ptr, ptr %182, align 8, !tbaa !59
  %184 = getelementptr inbounds nuw %struct._SUNMatrixContent_Band, ptr %183, i32 0, i32 8
  %185 = load ptr, ptr %184, align 8, !tbaa !62
  %186 = load i64, ptr %9, align 8, !tbaa !13
  %187 = mul nsw i64 3, %186
  %188 = add nsw i64 %187, 1
  %189 = getelementptr inbounds ptr, ptr %185, i64 %188
  %190 = load ptr, ptr %189, align 8, !tbaa !28
  %191 = load i64, ptr %9, align 8, !tbaa !13
  %192 = mul nsw i64 3, %191
  %193 = add nsw i64 %192, 1
  %194 = load i64, ptr %9, align 8, !tbaa !13
  %195 = mul nsw i64 3, %194
  %196 = add nsw i64 %195, 1
  %197 = sub nsw i64 %193, %196
  %198 = load ptr, ptr %5, align 8, !tbaa !24
  %199 = getelementptr inbounds nuw %struct._generic_SUNMatrix, ptr %198, i32 0, i32 0
  %200 = load ptr, ptr %199, align 8, !tbaa !59
  %201 = getelementptr inbounds nuw %struct._SUNMatrixContent_Band, ptr %200, i32 0, i32 5
  %202 = load i64, ptr %201, align 8, !tbaa !64
  %203 = add nsw i64 %197, %202
  %204 = getelementptr inbounds double, ptr %190, i64 %203
  %205 = load double, ptr %204, align 8, !tbaa !11
  %206 = fadd double %205, %180
  store double %206, ptr %204, align 8, !tbaa !11
  %207 = load double, ptr %4, align 8, !tbaa !11
  %208 = fneg double %207
  %209 = fmul double %208, 2.000000e+00
  %210 = load ptr, ptr %6, align 8, !tbaa !17
  %211 = getelementptr inbounds nuw %struct.anon, ptr %210, i32 0, i32 7
  %212 = load double, ptr %211, align 8, !tbaa !40
  %213 = fmul double %209, %212
  %214 = load double, ptr %8, align 8, !tbaa !11
  %215 = fdiv double %213, %214
  %216 = load double, ptr %8, align 8, !tbaa !11
  %217 = fdiv double %215, %216
  %218 = load ptr, ptr %5, align 8, !tbaa !24
  %219 = getelementptr inbounds nuw %struct._generic_SUNMatrix, ptr %218, i32 0, i32 0
  %220 = load ptr, ptr %219, align 8, !tbaa !59
  %221 = getelementptr inbounds nuw %struct._SUNMatrixContent_Band, ptr %220, i32 0, i32 8
  %222 = load ptr, ptr %221, align 8, !tbaa !62
  %223 = load i64, ptr %9, align 8, !tbaa !13
  %224 = mul nsw i64 3, %223
  %225 = add nsw i64 %224, 2
  %226 = getelementptr inbounds ptr, ptr %222, i64 %225
  %227 = load ptr, ptr %226, align 8, !tbaa !28
  %228 = load i64, ptr %9, align 8, !tbaa !13
  %229 = mul nsw i64 3, %228
  %230 = add nsw i64 %229, 2
  %231 = load i64, ptr %9, align 8, !tbaa !13
  %232 = mul nsw i64 3, %231
  %233 = add nsw i64 %232, 2
  %234 = sub nsw i64 %230, %233
  %235 = load ptr, ptr %5, align 8, !tbaa !24
  %236 = getelementptr inbounds nuw %struct._generic_SUNMatrix, ptr %235, i32 0, i32 0
  %237 = load ptr, ptr %236, align 8, !tbaa !59
  %238 = getelementptr inbounds nuw %struct._SUNMatrixContent_Band, ptr %237, i32 0, i32 5
  %239 = load i64, ptr %238, align 8, !tbaa !64
  %240 = add nsw i64 %234, %239
  %241 = getelementptr inbounds double, ptr %227, i64 %240
  %242 = load double, ptr %241, align 8, !tbaa !11
  %243 = fadd double %242, %217
  store double %243, ptr %241, align 8, !tbaa !11
  %244 = load double, ptr %4, align 8, !tbaa !11
  %245 = load ptr, ptr %6, align 8, !tbaa !17
  %246 = getelementptr inbounds nuw %struct.anon, ptr %245, i32 0, i32 5
  %247 = load double, ptr %246, align 8, !tbaa !38
  %248 = fmul double %244, %247
  %249 = load double, ptr %8, align 8, !tbaa !11
  %250 = fdiv double %248, %249
  %251 = load double, ptr %8, align 8, !tbaa !11
  %252 = fdiv double %250, %251
  %253 = load ptr, ptr %5, align 8, !tbaa !24
  %254 = getelementptr inbounds nuw %struct._generic_SUNMatrix, ptr %253, i32 0, i32 0
  %255 = load ptr, ptr %254, align 8, !tbaa !59
  %256 = getelementptr inbounds nuw %struct._SUNMatrixContent_Band, ptr %255, i32 0, i32 8
  %257 = load ptr, ptr %256, align 8, !tbaa !62
  %258 = load i64, ptr %9, align 8, !tbaa !13
  %259 = add nsw i64 %258, 1
  %260 = mul nsw i64 3, %259
  %261 = add nsw i64 %260, 0
  %262 = getelementptr inbounds ptr, ptr %257, i64 %261
  %263 = load ptr, ptr %262, align 8, !tbaa !28
  %264 = load i64, ptr %9, align 8, !tbaa !13
  %265 = mul nsw i64 3, %264
  %266 = add nsw i64 %265, 0
  %267 = load i64, ptr %9, align 8, !tbaa !13
  %268 = add nsw i64 %267, 1
  %269 = mul nsw i64 3, %268
  %270 = add nsw i64 %269, 0
  %271 = sub nsw i64 %266, %270
  %272 = load ptr, ptr %5, align 8, !tbaa !24
  %273 = getelementptr inbounds nuw %struct._generic_SUNMatrix, ptr %272, i32 0, i32 0
  %274 = load ptr, ptr %273, align 8, !tbaa !59
  %275 = getelementptr inbounds nuw %struct._SUNMatrixContent_Band, ptr %274, i32 0, i32 5
  %276 = load i64, ptr %275, align 8, !tbaa !64
  %277 = add nsw i64 %271, %276
  %278 = getelementptr inbounds double, ptr %263, i64 %277
  %279 = load double, ptr %278, align 8, !tbaa !11
  %280 = fadd double %279, %252
  store double %280, ptr %278, align 8, !tbaa !11
  %281 = load double, ptr %4, align 8, !tbaa !11
  %282 = load ptr, ptr %6, align 8, !tbaa !17
  %283 = getelementptr inbounds nuw %struct.anon, ptr %282, i32 0, i32 6
  %284 = load double, ptr %283, align 8, !tbaa !39
  %285 = fmul double %281, %284
  %286 = load double, ptr %8, align 8, !tbaa !11
  %287 = fdiv double %285, %286
  %288 = load double, ptr %8, align 8, !tbaa !11
  %289 = fdiv double %287, %288
  %290 = load ptr, ptr %5, align 8, !tbaa !24
  %291 = getelementptr inbounds nuw %struct._generic_SUNMatrix, ptr %290, i32 0, i32 0
  %292 = load ptr, ptr %291, align 8, !tbaa !59
  %293 = getelementptr inbounds nuw %struct._SUNMatrixContent_Band, ptr %292, i32 0, i32 8
  %294 = load ptr, ptr %293, align 8, !tbaa !62
  %295 = load i64, ptr %9, align 8, !tbaa !13
  %296 = add nsw i64 %295, 1
  %297 = mul nsw i64 3, %296
  %298 = add nsw i64 %297, 1
  %299 = getelementptr inbounds ptr, ptr %294, i64 %298
  %300 = load ptr, ptr %299, align 8, !tbaa !28
  %301 = load i64, ptr %9, align 8, !tbaa !13
  %302 = mul nsw i64 3, %301
  %303 = add nsw i64 %302, 1
  %304 = load i64, ptr %9, align 8, !tbaa !13
  %305 = add nsw i64 %304, 1
  %306 = mul nsw i64 3, %305
  %307 = add nsw i64 %306, 1
  %308 = sub nsw i64 %303, %307
  %309 = load ptr, ptr %5, align 8, !tbaa !24
  %310 = getelementptr inbounds nuw %struct._generic_SUNMatrix, ptr %309, i32 0, i32 0
  %311 = load ptr, ptr %310, align 8, !tbaa !59
  %312 = getelementptr inbounds nuw %struct._SUNMatrixContent_Band, ptr %311, i32 0, i32 5
  %313 = load i64, ptr %312, align 8, !tbaa !64
  %314 = add nsw i64 %308, %313
  %315 = getelementptr inbounds double, ptr %300, i64 %314
  %316 = load double, ptr %315, align 8, !tbaa !11
  %317 = fadd double %316, %289
  store double %317, ptr %315, align 8, !tbaa !11
  %318 = load double, ptr %4, align 8, !tbaa !11
  %319 = load ptr, ptr %6, align 8, !tbaa !17
  %320 = getelementptr inbounds nuw %struct.anon, ptr %319, i32 0, i32 7
  %321 = load double, ptr %320, align 8, !tbaa !40
  %322 = fmul double %318, %321
  %323 = load double, ptr %8, align 8, !tbaa !11
  %324 = fdiv double %322, %323
  %325 = load double, ptr %8, align 8, !tbaa !11
  %326 = fdiv double %324, %325
  %327 = load ptr, ptr %5, align 8, !tbaa !24
  %328 = getelementptr inbounds nuw %struct._generic_SUNMatrix, ptr %327, i32 0, i32 0
  %329 = load ptr, ptr %328, align 8, !tbaa !59
  %330 = getelementptr inbounds nuw %struct._SUNMatrixContent_Band, ptr %329, i32 0, i32 8
  %331 = load ptr, ptr %330, align 8, !tbaa !62
  %332 = load i64, ptr %9, align 8, !tbaa !13
  %333 = add nsw i64 %332, 1
  %334 = mul nsw i64 3, %333
  %335 = add nsw i64 %334, 2
  %336 = getelementptr inbounds ptr, ptr %331, i64 %335
  %337 = load ptr, ptr %336, align 8, !tbaa !28
  %338 = load i64, ptr %9, align 8, !tbaa !13
  %339 = mul nsw i64 3, %338
  %340 = add nsw i64 %339, 2
  %341 = load i64, ptr %9, align 8, !tbaa !13
  %342 = add nsw i64 %341, 1
  %343 = mul nsw i64 3, %342
  %344 = add nsw i64 %343, 2
  %345 = sub nsw i64 %340, %344
  %346 = load ptr, ptr %5, align 8, !tbaa !24
  %347 = getelementptr inbounds nuw %struct._generic_SUNMatrix, ptr %346, i32 0, i32 0
  %348 = load ptr, ptr %347, align 8, !tbaa !59
  %349 = getelementptr inbounds nuw %struct._SUNMatrixContent_Band, ptr %348, i32 0, i32 5
  %350 = load i64, ptr %349, align 8, !tbaa !64
  %351 = add nsw i64 %345, %350
  %352 = getelementptr inbounds double, ptr %337, i64 %351
  %353 = load double, ptr %352, align 8, !tbaa !11
  %354 = fadd double %353, %326
  store double %354, ptr %352, align 8, !tbaa !11
  br label %355

355:                                              ; preds = %21
  %356 = load i64, ptr %9, align 8, !tbaa !13
  %357 = add nsw i64 %356, 1
  store i64 %357, ptr %9, align 8, !tbaa !13
  br label %16

358:                                              ; preds = %16
  call void @llvm.lifetime.end.p0(i64 8, ptr %9) #8
  call void @llvm.lifetime.end.p0(i64 8, ptr %8) #8
  call void @llvm.lifetime.end.p0(i64 8, ptr %7) #8
  ret i32 0
}