; Function Attrs: nofree norecurse nosync nounwind memory(readwrite, inaccessiblemem: none) uwtable
define internal fastcc void @LaplaceMatrix(ptr noundef readonly captures(none) %0, ptr noundef readonly captures(none) %1) unnamed_addr #10 {
  %3 = load i64, ptr %1, align 8, !tbaa !16
  %4 = getelementptr inbounds nuw i8, ptr %1, i64 8
  %5 = load double, ptr %4, align 8, !tbaa !30
  %6 = icmp sgt i64 %3, 2
  br i1 %6, label %.lr.ph, label %._crit_edge

.lr.ph:                                           ; preds = %2
  %7 = getelementptr inbounds nuw i8, ptr %1, i64 40
  %8 = load ptr, ptr %0, align 8, !tbaa !45
  %9 = getelementptr inbounds nuw i8, ptr %8, i64 64
  %10 = load ptr, ptr %9, align 8, !tbaa !48
  %invariant.gep = getelementptr i8, ptr %10, i64 -24
  %11 = getelementptr inbounds nuw i8, ptr %8, i64 40
  %12 = load i64, ptr %11, align 8, !tbaa !50
  %13 = getelementptr inbounds nuw i8, ptr %1, i64 48
  %invariant.gep86 = getelementptr i8, ptr %10, i64 -16
  %14 = getelementptr inbounds nuw i8, ptr %1, i64 56
  %invariant.gep88 = getelementptr i8, ptr %10, i64 -8
  %invariant.gep90 = getelementptr i8, ptr %10, i64 8
  %invariant.gep92 = getelementptr i8, ptr %10, i64 16
  %15 = add nsw i64 %3, -2
  br label %16

16:                                               ; preds = %.lr.ph, %16
  %.085 = phi i64 [ 1, %.lr.ph ], [ %70, %16 ]
  %17 = load double, ptr %7, align 8, !tbaa !22
  %18 = fdiv double %17, %5
  %19 = fdiv double %18, %5
  %20 = mul i64 %.085, 3
  %gep = getelementptr ptr, ptr %invariant.gep, i64 %20
  %21 = load ptr, ptr %gep, align 8, !tbaa !37
  %22 = getelementptr i8, ptr %21, i64 24
  %23 = getelementptr double, ptr %22, i64 %12
  %24 = load double, ptr %23, align 8, !tbaa !31
  %25 = fadd double %19, %24
  store double %25, ptr %23, align 8, !tbaa !31
  %26 = load double, ptr %13, align 8, !tbaa !23
  %27 = fdiv double %26, %5
  %28 = fdiv double %27, %5
  %gep87 = getelementptr ptr, ptr %invariant.gep86, i64 %20
  %29 = load ptr, ptr %gep87, align 8, !tbaa !37
  %30 = getelementptr i8, ptr %29, i64 24
  %31 = getelementptr double, ptr %30, i64 %12
  %32 = load double, ptr %31, align 8, !tbaa !31
  %33 = fadd double %32, %28
  store double %33, ptr %31, align 8, !tbaa !31
  %34 = load double, ptr %14, align 8, !tbaa !24
  %35 = fdiv double %34, %5
  %36 = fdiv double %35, %5
  %gep89 = getelementptr ptr, ptr %invariant.gep88, i64 %20
  %37 = load ptr, ptr %gep89, align 8, !tbaa !37
  %38 = getelementptr i8, ptr %37, i64 24
  %39 = getelementptr double, ptr %38, i64 %12
  %40 = load double, ptr %39, align 8, !tbaa !31
  %41 = fadd double %40, %36
  store double %41, ptr %39, align 8, !tbaa !31
  %42 = load double, ptr %7, align 8, !tbaa !22
  %43 = fmul double %42, 2.000000e+00
  %44 = fdiv double %43, %5
  %45 = fdiv double %44, %5
  %46 = getelementptr inbounds nuw ptr, ptr %10, i64 %20
  %47 = load ptr, ptr %46, align 8, !tbaa !37
  %48 = getelementptr inbounds double, ptr %47, i64 %12
  %49 = load double, ptr %48, align 8, !tbaa !31
  %50 = fsub double %49, %45
  store double %50, ptr %48, align 8, !tbaa !31
  %51 = load double, ptr %13, align 8, !tbaa !23
  %52 = fmul double %51, 2.000000e+00
  %53 = fdiv double %52, %5
  %54 = fdiv double %53, %5
  %gep91 = getelementptr ptr, ptr %invariant.gep90, i64 %20
  %55 = load ptr, ptr %gep91, align 8, !tbaa !37
  %56 = getelementptr inbounds double, ptr %55, i64 %12
  %57 = load double, ptr %56, align 8, !tbaa !31
  %58 = fsub double %57, %54
  store double %58, ptr %56, align 8, !tbaa !31
  %59 = load double, ptr %14, align 8, !tbaa !24
  %60 = fmul double %59, 2.000000e+00
  %61 = fdiv double %60, %5
  %62 = fdiv double %61, %5
  %gep93 = getelementptr ptr, ptr %invariant.gep92, i64 %20
  %63 = load ptr, ptr %gep93, align 8, !tbaa !37
  %64 = getelementptr inbounds double, ptr %63, i64 %12
  %65 = load double, ptr %64, align 8, !tbaa !31
  %66 = fsub double %65, %62
  store double %66, ptr %64, align 8, !tbaa !31
  %67 = load double, ptr %7, align 8, !tbaa !22
  %68 = fdiv double %67, %5
  %69 = fdiv double %68, %5
  %70 = add nuw nsw i64 %.085, 1
  %.idx = mul nuw nsw i64 %70, 24
  %71 = getelementptr inbounds nuw i8, ptr %10, i64 %.idx
  %72 = load ptr, ptr %71, align 8, !tbaa !37
  %73 = getelementptr double, ptr %72, i64 %12
  %74 = getelementptr i8, ptr %73, i64 -24
  %75 = load double, ptr %74, align 8, !tbaa !31
  %76 = fadd double %75, %69
  store double %76, ptr %74, align 8, !tbaa !31
  %77 = load double, ptr %13, align 8, !tbaa !23
  %78 = fdiv double %77, %5
  %79 = fdiv double %78, %5
  %80 = getelementptr inbounds nuw i8, ptr %71, i64 8
  %81 = load ptr, ptr %80, align 8, !tbaa !37
  %82 = getelementptr double, ptr %81, i64 %12
  %83 = getelementptr i8, ptr %82, i64 -24
  %84 = load double, ptr %83, align 8, !tbaa !31
  %85 = fadd double %84, %79
  store double %85, ptr %83, align 8, !tbaa !31
  %86 = load double, ptr %14, align 8, !tbaa !24
  %87 = fdiv double %86, %5
  %88 = fdiv double %87, %5
  %89 = getelementptr inbounds nuw i8, ptr %71, i64 16
  %90 = load ptr, ptr %89, align 8, !tbaa !37
  %91 = getelementptr double, ptr %90, i64 %12
  %92 = getelementptr i8, ptr %91, i64 -24
  %93 = load double, ptr %92, align 8, !tbaa !31
  %94 = fadd double %93, %88
  store double %94, ptr %92, align 8, !tbaa !31
  %exitcond.not = icmp eq i64 %.085, %15
  br i1 %exitcond.not, label %._crit_edge, label %16

._crit_edge:                                      ; preds = %16, %2
  ret void
}